; Function Attrs: nounwind uwtable
define void @Cba_NtkCollectDfs_rec(ptr noundef captures(none) %0, i32 noundef %1, ptr noundef captures(none) %2) local_unnamed_addr #1 {
  %4 = getelementptr inbounds nuw i8, ptr %0, i64 168
  %5 = add nsw i32 %1, 1
  tail call fastcc void @Vec_IntFillExtra(ptr noundef nonnull %4, i32 noundef %5, i32 noundef -1)
  %6 = getelementptr i8, ptr %0, i64 176
  %.val.i.i = load ptr, ptr %6, align 8
  %7 = sext i32 %1 to i64
  %8 = getelementptr inbounds i32, ptr %.val.i.i, i64 %7
  %9 = load i32, ptr %8, align 4
  %.not = icmp eq i32 %9, 0
  br i1 %.not, label %65, label %10

10:                                               ; preds = %3
  tail call fastcc void @Vec_IntFillExtra(ptr noundef nonnull %4, i32 noundef %5, i32 noundef 0)
  %.val.i.i24 = load ptr, ptr %6, align 8
  %11 = getelementptr inbounds i32, ptr %.val.i.i24, i64 %7
  store i32 0, ptr %11, align 4
  %12 = getelementptr i8, ptr %0, i64 112
  %.val22 = load ptr, ptr %12, align 8
  %13 = getelementptr inbounds i32, ptr %.val22, i64 %7
  %14 = load i32, ptr %13, align 4
  %15 = sext i32 %5 to i64
  %16 = getelementptr inbounds i32, ptr %.val22, i64 %15
  %17 = load i32, ptr %16, align 4
  %18 = icmp slt i32 %14, %17
  br i1 %18, label %.lr.ph, label %.critedge

.lr.ph:                                           ; preds = %10
  %19 = getelementptr i8, ptr %0, i64 144
  %20 = getelementptr i8, ptr %0, i64 160
  %21 = sext i32 %14 to i64
  br label %22

22:                                               ; preds = %.lr.ph, %Cba_FonObj.exit.thread
  %.val29 = phi ptr [ %.val22, %.lr.ph ], [ %.val, %Cba_FonObj.exit.thread ]
  %indvars.iv = phi i64 [ %21, %.lr.ph ], [ %indvars.iv.next, %Cba_FonObj.exit.thread ]
  %.val23 = load ptr, ptr %19, align 8
  %23 = getelementptr inbounds i32, ptr %.val23, i64 %indvars.iv
  %24 = load i32, ptr %23, align 4
  %25 = icmp slt i32 %24, 1
  br i1 %25, label %Cba_FonObj.exit.thread, label %Cba_FonObj.exit

Cba_FonObj.exit:                                  ; preds = %22
  %.val.i = load ptr, ptr %20, align 8
  %26 = zext nneg i32 %24 to i64
  %27 = getelementptr inbounds nuw i32, ptr %.val.i, i64 %26
  %28 = load i32, ptr %27, align 4
  %.not21 = icmp eq i32 %28, 0
  br i1 %.not21, label %Cba_FonObj.exit.thread, label %29

29:                                               ; preds = %Cba_FonObj.exit
  tail call void @Cba_NtkCollectDfs_rec(ptr noundef nonnull %0, i32 noundef %28, ptr noundef %2)
  %.val.pre = load ptr, ptr %12, align 8
  br label %Cba_FonObj.exit.thread

Cba_FonObj.exit.thread:                           ; preds = %22, %29, %Cba_FonObj.exit
  %.val = phi ptr [ %.val29, %22 ], [ %.val.pre, %29 ], [ %.val29, %Cba_FonObj.exit ]
  %indvars.iv.next = add nsw i64 %indvars.iv, 1
  %30 = getelementptr inbounds i32, ptr %.val, i64 %15
  %31 = load i32, ptr %30, align 4
  %32 = sext i32 %31 to i64
  %33 = icmp slt i64 %indvars.iv.next, %32
  br i1 %33, label %22, label %.critedge, !llvm.loop !47

.critedge:                                        ; preds = %Cba_FonObj.exit.thread, %10
  %34 = getelementptr inbounds nuw i8, ptr %2, i64 4
  %35 = load i32, ptr %34, align 4
  %36 = load i32, ptr %2, align 8
  %37 = icmp eq i32 %35, %36
  br i1 %37, label %38, label %.Vec_IntGrow.exit10_crit_edge.i

.Vec_IntGrow.exit10_crit_edge.i:                  ; preds = %.critedge
  %.phi.trans.insert.i = getelementptr inbounds nuw i8, ptr %2, i64 8
  %.pre.i = load ptr, ptr %.phi.trans.insert.i, align 8
  br label %Vec_IntPush.exit

38:                                               ; preds = %.critedge
  %39 = icmp slt i32 %35, 16
  br i1 %39, label %40, label %48

40:                                               ; preds = %38
  %41 = getelementptr inbounds nuw i8, ptr %2, i64 8
  %42 = load ptr, ptr %41, align 8
  %.not9.i.i = icmp eq ptr %42, null
  br i1 %.not9.i.i, label %45, label %43

43:                                               ; preds = %40
  %44 = tail call dereferenceable_or_null(64) ptr @realloc(ptr noundef nonnull %42, i64 noundef 64) #28
  br label %Vec_IntGrow.exit.i

45:                                               ; preds = %40
  %46 = tail call noalias dereferenceable_or_null(64) ptr @malloc(i64 noundef 64) #25
  br label %Vec_IntGrow.exit.i

Vec_IntGrow.exit.i:                               ; preds = %45, %43
  %47 = phi ptr [ %44, %43 ], [ %46, %45 ]
  store ptr %47, ptr %41, align 8
  store i32 16, ptr %2, align 8
  br label %Vec_IntPush.exit

48:                                               ; preds = %38
  %49 = shl nuw nsw i32 %35, 1
  %50 = getelementptr inbounds nuw i8, ptr %2, i64 8
  %51 = load ptr, ptr %50, align 8
  %.not9.i9.i = icmp eq ptr %51, null
  %52 = zext nneg i32 %49 to i64
  %53 = shl nuw nsw i64 %52, 2
  br i1 %.not9.i9.i, label %56, label %54

54:                                               ; preds = %48
  %55 = tail call ptr @realloc(ptr noundef nonnull %51, i64 noundef %53) #28
  br label %58

56:                                               ; preds = %48
  %57 = tail call noalias ptr @malloc(i64 noundef %53) #25
  br label %58

58:                                               ; preds = %56, %54
  %59 = phi ptr [ %55, %54 ], [ %57, %56 ]
  store ptr %59, ptr %50, align 8
  store i32 %49, ptr %2, align 8
  br label %Vec_IntPush.exit

Vec_IntPush.exit:                                 ; preds = %.Vec_IntGrow.exit10_crit_edge.i, %Vec_IntGrow.exit.i, %58
  %60 = phi ptr [ %.pre.i, %.Vec_IntGrow.exit10_crit_edge.i ], [ %59, %58 ], [ %47, %Vec_IntGrow.exit.i ]
  %61 = load i32, ptr %34, align 4
  %62 = add nsw i32 %61, 1
  store i32 %62, ptr %34, align 4
  %63 = sext i32 %61 to i64
  %64 = getelementptr inbounds i32, ptr %60, i64 %63
  store i32 %1, ptr %64, align 4
  br label %65

65:                                               ; preds = %3, %Vec_IntPush.exit
  ret void
}